target datalayout = "e-m:e-p270:32:32-p271:32:32-p272:64:64-i64:64-i128:128-f80:128-n8:16:32:64-S128"
target triple = "x86_64-pc-linux-gnu"

%"class.cv::Range" = type { i32, i32 }
%"struct.cv::ximgproc::FastGlobalSmootherFilterImpl::ComputeLUT_ParBody" = type <{ %"class.cv::ParallelLoopBody", ptr, ptr, i32, i32, i32, [4 x i8] }>
%"class.cv::ParallelLoopBody" = type { ptr }
%"class.cv::Mat" = type { i32, i32, i32, i32, ptr, ptr, ptr, ptr, ptr, ptr, %"struct.cv::MatSize", %"struct.cv::MatStep" }
%"struct.cv::MatSize" = type { ptr }
%"struct.cv::MatStep" = type { ptr, [2 x i64] }
%"class.cv::ximgproc::FastGlobalSmootherFilterImpl" = type { %"class.cv::ximgproc::FastGlobalSmootherFilter", i32, i32, i32, float, float, float, i32, %"class.cv::Mat", %"class.cv::Mat", %"class.cv::Mat", %"class.cv::Mat" }
%"class.cv::ximgproc::FastGlobalSmootherFilter" = type { %"class.cv::Algorithm" }
%"class.cv::Algorithm" = type { ptr }

; Function Attrs: inlinehint mustprogress nounwind uwtable
define linkonce_odr noundef float @_ZSt3expf(float noundef %0) #8 comdat {
  %2 = alloca float, align 4
  store float %0, ptr %2, align 4, !tbaa !93
  %3 = load float, ptr %2, align 4, !tbaa !93
  %4 = call float @expf(float noundef %3) #3, !tbaa !12
  ret float %4
}

; Function Attrs: inlinehint mustprogress nounwind uwtable
define linkonce_odr noundef float @_ZSt4sqrtf(float noundef %0) #8 comdat {
  %2 = alloca float, align 4
  store float %0, ptr %2, align 4, !tbaa !93
  %3 = load float, ptr %2, align 4, !tbaa !93
  %4 = call float @sqrtf(float noundef %3) #3, !tbaa !12
  ret float %4
}

; Function Attrs: inlinehint mustprogress nounwind uwtable
define linkonce_odr noundef nonnull align 4 dereferenceable(4) ptr @_ZSt3minIiERKT_S2_S2_(ptr noundef nonnull align 4 dereferenceable(4) %0, ptr noundef nonnull align 4 dereferenceable(4) %1) #8 comdat {
  %3 = alloca ptr, align 8
  %4 = alloca ptr, align 8
  %5 = alloca ptr, align 8
  store ptr %0, ptr %4, align 8, !tbaa !115
  store ptr %1, ptr %5, align 8, !tbaa !115
  %6 = load ptr, ptr %5, align 8, !tbaa !115
  %7 = load i32, ptr %6, align 4, !tbaa !12
  %8 = load ptr, ptr %4, align 8, !tbaa !115
  %9 = load i32, ptr %8, align 4, !tbaa !12
  %10 = icmp slt i32 %7, %9
  br i1 %10, label %11, label %13

11:                                               ; preds = %2
  %12 = load ptr, ptr %5, align 8, !tbaa !115
  store ptr %12, ptr %3, align 8
  br label %15

13:                                               ; preds = %2
  %14 = load ptr, ptr %4, align 8, !tbaa !115
  store ptr %14, ptr %3, align 8
  br label %15

15:                                               ; preds = %13, %11
  %16 = load ptr, ptr %3, align 8
  ret ptr %16
}

; Function Attrs: mustprogress uwtable
define hidden void @_ZNK2cv8ximgproc28FastGlobalSmootherFilterImpl18ComputeLUT_ParBodyclERKNS_5RangeE(ptr noundef nonnull align 8 dereferenceable(36) %0, ptr noundef nonnull align 4 dereferenceable(8) %1) unnamed_addr #4 align 2 {
  %3 = alloca ptr, align 8
  %4 = alloca ptr, align 8
  %5 = alloca i32, align 4
  %6 = alloca i32, align 4
  %7 = alloca i32, align 4
  %8 = alloca i32, align 4
  %9 = alloca i32, align 4
  store ptr %0, ptr %3, align 8, !tbaa !133
  store ptr %1, ptr %4, align 8, !tbaa !46
  %10 = load ptr, ptr %3, align 8
  call void @llvm.lifetime.start.p0(i64 4, ptr %5) #3
  call void @llvm.lifetime.start.p0(i64 4, ptr %6) #3
  %11 = load ptr, ptr %4, align 8, !tbaa !46
  %12 = getelementptr inbounds nuw %"class.cv::Range", ptr %11, i32 0, i32 0
  %13 = load i32, ptr %12, align 4, !tbaa !48
  %14 = getelementptr inbounds nuw %"struct.cv::ximgproc::FastGlobalSmootherFilterImpl::ComputeLUT_ParBody", ptr %10, i32 0, i32 4
  %15 = load i32, ptr %14, align 4, !tbaa !140
  %16 = mul nsw i32 %13, %15
  store i32 %16, ptr %6, align 4, !tbaa !12
  %17 = getelementptr inbounds nuw %"struct.cv::ximgproc::FastGlobalSmootherFilterImpl::ComputeLUT_ParBody", ptr %10, i32 0, i32 5
  %18 = call noundef nonnull align 4 dereferenceable(4) ptr @_ZSt3minIiERKT_S2_S2_(ptr noundef nonnull align 4 dereferenceable(4) %6, ptr noundef nonnull align 4 dereferenceable(4) %17)
  %19 = load i32, ptr %18, align 4, !tbaa !12
  call void @llvm.lifetime.end.p0(i64 4, ptr %6) #3
  store i32 %19, ptr %5, align 4, !tbaa !12
  call void @llvm.lifetime.start.p0(i64 4, ptr %7) #3
  call void @llvm.lifetime.start.p0(i64 4, ptr %8) #3
  %20 = load ptr, ptr %4, align 8, !tbaa !46
  %21 = getelementptr inbounds nuw %"class.cv::Range", ptr %20, i32 0, i32 1
  %22 = load i32, ptr %21, align 4, !tbaa !50
  %23 = getelementptr inbounds nuw %"struct.cv::ximgproc::FastGlobalSmootherFilterImpl::ComputeLUT_ParBody", ptr %10, i32 0, i32 4
  %24 = load i32, ptr %23, align 4, !tbaa !140
  %25 = mul nsw i32 %22, %24
  store i32 %25, ptr %8, align 4, !tbaa !12
  %26 = getelementptr inbounds nuw %"struct.cv::ximgproc::FastGlobalSmootherFilterImpl::ComputeLUT_ParBody", ptr %10, i32 0, i32 5
  %27 = call noundef nonnull align 4 dereferenceable(4) ptr @_ZSt3minIiERKT_S2_S2_(ptr noundef nonnull align 4 dereferenceable(4) %8, ptr noundef nonnull align 4 dereferenceable(4) %26)
  %28 = load i32, ptr %27, align 4, !tbaa !12
  call void @llvm.lifetime.end.p0(i64 4, ptr %8) #3
  store i32 %28, ptr %7, align 4, !tbaa !12
  call void @llvm.lifetime.start.p0(i64 4, ptr %9) #3
  %29 = load i32, ptr %5, align 4, !tbaa !12
  store i32 %29, ptr %9, align 4, !tbaa !12
  br label %30

30:                                               ; preds = %52, %2
  %31 = load i32, ptr %9, align 4, !tbaa !12
  %32 = load i32, ptr %7, align 4, !tbaa !12
  %33 = icmp slt i32 %31, %32
  br i1 %33, label %35, label %34

34:                                               ; preds = %30
  call void @llvm.lifetime.end.p0(i64 4, ptr %9) #3
  br label %55

35:                                               ; preds = %30
  %36 = load i32, ptr %9, align 4, !tbaa !12
  %37 = sitofp i32 %36 to float
  %38 = call noundef float @_ZSt4sqrtf(float noundef %37)
  %39 = fneg float %38
  %40 = getelementptr inbounds nuw %"struct.cv::ximgproc::FastGlobalSmootherFilterImpl::ComputeLUT_ParBody", ptr %10, i32 0, i32 1
  %41 = load ptr, ptr %40, align 8, !tbaa !135
  %42 = getelementptr inbounds nuw %"class.cv::ximgproc::FastGlobalSmootherFilterImpl", ptr %41, i32 0, i32 4
  %43 = load float, ptr %42, align 4, !tbaa !14
  %44 = fdiv float %39, %43
  %45 = call noundef float @_ZSt3expf(float noundef %44)
  %46 = fneg float %45
  %47 = getelementptr inbounds nuw %"struct.cv::ximgproc::FastGlobalSmootherFilterImpl::ComputeLUT_ParBody", ptr %10, i32 0, i32 2
  %48 = load ptr, ptr %47, align 8, !tbaa !137
  %49 = load i32, ptr %9, align 4, !tbaa !12
  %50 = sext i32 %49 to i64
  %51 = getelementptr inbounds float, ptr %48, i64 %50
  store float %46, ptr %51, align 4, !tbaa !93
  br label %52

52:                                               ; preds = %35
  %53 = load i32, ptr %9, align 4, !tbaa !12
  %54 = add nsw i32 %53, 1
  store i32 %54, ptr %9, align 4, !tbaa !12
  br label %30, !llvm.loop !141

55:                                               ; preds = %34
  call void @llvm.lifetime.end.p0(i64 4, ptr %7) #3
  call void @llvm.lifetime.end.p0(i64 4, ptr %5) #3
  ret void
}