; Function Attrs: mustprogress nofree nounwind memory(readwrite, inaccessiblemem: write) uwtable
define hidden void @_ZNK2cv8ximgproc28FastGlobalSmootherFilterImpl18ComputeLUT_ParBodyclERKNS_5RangeE(ptr noundef nonnull readonly align 8 captures(none) dereferenceable(36) %0, ptr noundef nonnull readonly align 4 captures(none) dereferenceable(8) %1) unnamed_addr #14 align 2 {
  %3 = load i32, ptr %1, align 4, !tbaa !30
  %4 = getelementptr inbounds nuw i8, ptr %0, i64 28
  %5 = load i32, ptr %4, align 4, !tbaa !43
  %6 = mul nsw i32 %5, %3
  %7 = getelementptr inbounds nuw i8, ptr %0, i64 32
  %8 = load i32, ptr %7, align 8, !tbaa !113
  %9 = getelementptr inbounds nuw i8, ptr %1, i64 4
  %10 = load i32, ptr %9, align 4, !tbaa !32
  %11 = mul nsw i32 %10, %5
  %.sroa.speculated = tail call i32 @llvm.smin.i32(i32 %8, i32 %11)
  %12 = icmp slt i32 %6, %.sroa.speculated
  br i1 %12, label %.lr.ph, label %._crit_edge

.lr.ph:                                           ; preds = %2
  %.sroa.speculated11 = tail call i32 @llvm.smin.i32(i32 %8, i32 %6)
  %13 = getelementptr inbounds nuw i8, ptr %0, i64 8
  %14 = load ptr, ptr %13, align 8, !tbaa !35
  %15 = getelementptr inbounds nuw i8, ptr %14, i64 20
  %16 = getelementptr inbounds nuw i8, ptr %0, i64 16
  %17 = load ptr, ptr %16, align 8, !tbaa !40
  %18 = tail call i32 @llvm.smin.i32(i32 %8, i32 %6)
  %smin = sext i32 %18 to i64
  %19 = add i32 %.sroa.speculated, %18
  %20 = sub i32 %19, %.sroa.speculated11
  br label %21

._crit_edge:                                      ; preds = %21, %2
  ret void

21:                                               ; preds = %.lr.ph, %21
  %indvars.iv = phi i64 [ %smin, %.lr.ph ], [ %indvars.iv.next, %21 ]
  %22 = trunc nsw i64 %indvars.iv to i32
  %23 = sitofp i32 %22 to float
  %24 = tail call noundef float @sqrtf(float noundef %23) #23, !tbaa !113
  %25 = fneg float %24
  %26 = load float, ptr %15, align 4, !tbaa !12
  %27 = fdiv float %25, %26
  %28 = tail call noundef float @expf(float noundef %27) #23, !tbaa !113
  %29 = fneg float %28
  %30 = getelementptr inbounds float, ptr %17, i64 %indvars.iv
  store float %29, ptr %30, align 4, !tbaa !116
  %indvars.iv.next = add nsw i64 %indvars.iv, 1
  %lftr.wideiv = trunc i64 %indvars.iv.next to i32
  %exitcond.not = icmp eq i32 %20, %lftr.wideiv
  br i1 %exitcond.not, label %._crit_edge, label %21, !llvm.loop !128
}